; ModuleID = '10/1065.c'
source_filename = "10/1065.c"
target datalayout = "e-m:e-p270:32:32-p271:32:32-p272:64:64-i64:64-f80:128-n8:16:32:64-S128"
target triple = "x86_64-pc-linux-gnu"

@.str = private unnamed_addr constant [3 x i8] c"%d\00", align 1

; Function Attrs: noinline nounwind uwtable
define dso_local i32 @pfC(i8* %0, i8* %1) #0 {
  %3 = alloca i8*, align 8
  %4 = alloca i8*, align 8
  %5 = alloca i32, align 4
  store i8* %0, i8** %3, align 8
  store i8* %1, i8** %4, align 8
  %6 = load i8*, i8** %3, align 8
  %7 = bitcast i8* %6 to i32*
  %8 = load i32, i32* %7, align 4
  %9 = load i8*, i8** %4, align 8
  %10 = bitcast i8* %9 to i32*
  %11 = load i32, i32* %10, align 4
  %12 = sub nsw i32 %8, %11
  store i32 %12, i32* %5, align 4
  %13 = load i32, i32* %5, align 4
  %14 = sub nsw i32 0, %13
  ret i32 %14
}

; Function Attrs: noinline nounwind uwtable
define dso_local i32 @main() #0 {
  %1 = alloca i32, align 4
  %2 = alloca i32, align 4
  %3 = alloca i32, align 4
  %4 = alloca i32, align 4
  %5 = alloca i32, align 4
  %6 = alloca [25 x i32], align 16
  %7 = alloca [25 x i32], align 16
  %8 = alloca i32, align 4
  store i32 0, i32* %1, align 4
  %9 = call i32 (i8*, ...) @__isoc99_scanf(i8* getelementptr inbounds ([3 x i8], [3 x i8]* @.str, i64 0, i64 0), i32* %2)
  store i32 0, i32* %8, align 4
  br label %10

10:                                               ; preds = %22, %0
  %11 = load i32, i32* %8, align 4
  %12 = load i32, i32* %2, align 4
  %13 = icmp slt i32 %11, %12
  br i1 %13, label %14, label %25

14:                                               ; preds = %10
  %15 = load i32, i32* %8, align 4
  %16 = sext i32 %15 to i64
  %17 = getelementptr inbounds [25 x i32], [25 x i32]* %6, i64 0, i64 %16
  %18 = call i32 (i8*, ...) @__isoc99_scanf(i8* getelementptr inbounds ([3 x i8], [3 x i8]* @.str, i64 0, i64 0), i32* %17)
  %19 = load i32, i32* %8, align 4
  %20 = sext i32 %19 to i64
  %21 = getelementptr inbounds [25 x i32], [25 x i32]* %7, i64 0, i64 %20
  store i32 0, i32* %21, align 4
  br label %22

22:                                               ; preds = %14
  %23 = load i32, i32* %8, align 4
  %24 = add nsw i32 %23, 1
  store i32 %24, i32* %8, align 4
  br label %10

25:                                               ; preds = %10
  %26 = load i32, i32* %2, align 4
  %27 = sub nsw i32 %26, 1
  %28 = sext i32 %27 to i64
  %29 = getelementptr inbounds [25 x i32], [25 x i32]* %7, i64 0, i64 %28
  store i32 1, i32* %29, align 4
  %30 = load i32, i32* %2, align 4
  %31 = sub nsw i32 %30, 2
  store i32 %31, i32* %4, align 4
  br label %32

32:                                               ; preds = %81, %25
  %33 = load i32, i32* %4, align 4
  %34 = icmp sge i32 %33, 0
  br i1 %34, label %35, label %84

35:                                               ; preds = %32
  %36 = load i32, i32* %4, align 4
  %37 = add nsw i32 %36, 1
  store i32 %37, i32* %5, align 4
  br label %38

38:                                               ; preds = %72, %35
  %39 = load i32, i32* %5, align 4
  %40 = load i32, i32* %2, align 4
  %41 = icmp slt i32 %39, %40
  br i1 %41, label %42, label %75

42:                                               ; preds = %38
  %43 = load i32, i32* %4, align 4
  %44 = sext i32 %43 to i64
  %45 = getelementptr inbounds [25 x i32], [25 x i32]* %6, i64 0, i64 %44
  %46 = load i32, i32* %45, align 4
  %47 = load i32, i32* %5, align 4
  %48 = sext i32 %47 to i64
  %49 = getelementptr inbounds [25 x i32], [25 x i32]* %6, i64 0, i64 %48
  %50 = load i32, i32* %49, align 4
  %51 = icmp sge i32 %46, %50
  br i1 %51, label %52, label %71

52:                                               ; preds = %42
  %53 = load i32, i32* %4, align 4
  %54 = sext i32 %53 to i64
  %55 = getelementptr inbounds [25 x i32], [25 x i32]* %7, i64 0, i64 %54
  %56 = load i32, i32* %55, align 4
  %57 = load i32, i32* %5, align 4
  %58 = sext i32 %57 to i64
  %59 = getelementptr inbounds [25 x i32], [25 x i32]* %7, i64 0, i64 %58
  %60 = load i32, i32* %59, align 4
  %61 = icmp slt i32 %56, %60
  br i1 %61, label %62, label %70

62:                                               ; preds = %52
  %63 = load i32, i32* %5, align 4
  %64 = sext i32 %63 to i64
  %65 = getelementptr inbounds [25 x i32], [25 x i32]* %7, i64 0, i64 %64
  %66 = load i32, i32* %65, align 4
  %67 = load i32, i32* %4, align 4
  %68 = sext i32 %67 to i64
  %69 = getelementptr inbounds [25 x i32], [25 x i32]* %7, i64 0, i64 %68
  store i32 %66, i32* %69, align 4
  br label %70

70:                                               ; preds = %62, %52
  br label %71

71:                                               ; preds = %70, %42
  br label %72

72:                                               ; preds = %71
  %73 = load i32, i32* %5, align 4
  %74 = add nsw i32 %73, 1
  store i32 %74, i32* %5, align 4
  br label %38

75:                                               ; preds = %38
  %76 = load i32, i32* %4, align 4
  %77 = sext i32 %76 to i64
  %78 = getelementptr inbounds [25 x i32], [25 x i32]* %7, i64 0, i64 %77
  %79 = load i32, i32* %78, align 4
  %80 = add nsw i32 %79, 1
  store i32 %80, i32* %78, align 4
  br label %81

81:                                               ; preds = %75
  %82 = load i32, i32* %4, align 4
  %83 = add nsw i32 %82, -1
  store i32 %83, i32* %4, align 4
  br label %32

84:                                               ; preds = %32
  %85 = getelementptr inbounds [25 x i32], [25 x i32]* %7, i64 0, i64 0
  %86 = bitcast i32* %85 to i8*
  %87 = load i32, i32* %2, align 4
  %88 = sext i32 %87 to i64
  call void @qsort(i8* %86, i64 %88, i64 4, i32 (i8*, i8*)* @pfC)
  %89 = getelementptr inbounds [25 x i32], [25 x i32]* %7, i64 0, i64 0
  %90 = load i32, i32* %89, align 16
  %91 = call i32 (i8*, ...) @printf(i8* getelementptr inbounds ([3 x i8], [3 x i8]* @.str, i64 0, i64 0), i32 %90)
  %92 = load i32, i32* %1, align 4
  ret i32 %92
}

declare dso_local i32 @__isoc99_scanf(i8*, ...) #1

declare dso_local void @qsort(i8*, i64, i64, i32 (i8*, i8*)*) #1

declare dso_local i32 @printf(i8*, ...) #1


!llvm.module.flags = !{!0}
!llvm.ident = !{!1}

!0 = !{i32 1, !"wchar_size", i32 4}
!1 = !{!"clang version 10.0.0-4ubuntu1 "}
